Certificate:
    Data:
        Version: 3 (0x2)
        Serial Number:
            9f:6e:60:7e:65:7c:cc:37
        Signature Algorithm: sha1WithRSAEncryption
        Issuer: C=il, ST=Negev, O=Negev Ltd, OU=Accounting, CN=www.negev.north/emailAddress=info@negev.north
        Validity
            Not Before: Aug 13 05:53:52 2011 GMT
            Not After : Aug 12 05:53:52 2014 GMT
        Subject: C=il, ST=Negev, O=Negev Ltd, OU=Accounting, CN=www.negev.north/emailAddress=info@negev.north
        Subject Public Key Info:
            Public Key Algorithm: rsaEncryption
                Public-Key: (2048 bit)
                Modulus:
                    00:c0:6c:ec:b6:e0:b5:47:7e:87:af:50:76:67:95:
                    00:3e:cb:eb:0d:ec:15:3c:cb:96:f5:7a:59:7c:74:
                    d0:ff:7d:2f:ac:d8:7c:42:5f:6f:0e:1d:5f:c7:c4:
                    be:5b:bd:ee:dd:4e:17:13:e9:8f:45:9e:76:dc:89:
                    79:9d:3d:fc:3d:bf:d8:6d:88:f8:d8:13:4a:37:0c:
                    00:b5:79:ff:a0:60:86:be:08:ee:0d:fa:42:bb:64:
                    73:e2:d0:bb:28:25:d0:41:60:d2:2d:d5:20:3d:30:
                    01:53:69:be:f6:80:ee:5d:dd:74:67:b9:71:23:5e:
                    4b:83:b2:f3:41:52:bf:75:07:be:42:f0:89:2e:0f:
                    b2:97:e8:cc:13:ae:3b:4d:22:f8:7a:89:13:10:91:
                    50:9d:6b:ac:30:16:5a:63:21:54:5f:06:bd:d3:dd:
                    07:76:7f:09:82:6d:fa:9a:89:3a:d2:6d:e5:9d:4d:
                    9d:df:88:53:54:a4:3c:e3:6c:64:a5:27:51:10:fd:
                    bb:27:d1:c9:9d:4f:7b:ba:e7:ba:57:c7:68:7b:e9:
                    ca:b5:27:75:b5:cb:ee:a3:eb:16:26:76:fb:92:0a:
                    ba:34:94:6f:f9:54:5f:d2:2d:c8:c7:98:0f:42:73:
                    73:8f:be:75:e8:7f:9b:2b:9b:d3:21:89:ec:d0:87:
                    35:5f
                Exponent: 65537 (0x10001)
        X509v3 extensions:
            X509v3 Subject Key Identifier: 
                9E:28:7A:27:93:01:C1:9E:11:1D:5E:CC:FE:F7:1C:55:7F:C9:3F:13
            X509v3 Authority Key Identifier: 
                keyid:9E:28:7A:27:93:01:C1:9E:11:1D:5E:CC:FE:F7:1C:55:7F:C9:3F:13

            X509v3 Basic Constraints: 
                CA:TRUE
    Signature Algorithm: sha1WithRSAEncryption
        87:aa:aa:40:41:d3:a1:57:80:9a:96:cb:48:d5:20:d3:61:06:
        e8:66:ab:9e:f2:83:c4:ac:db:ed:da:06:bd:b9:ef:90:07:a9:
        af:ed:52:bf:55:3f:b8:e6:6d:7a:3d:5a:29:00:3a:28:7c:87:
        c8:3c:c5:7d:4d:e5:26:b0:23:bb:af:3e:db:b0:25:a1:a3:ff:
        fe:0b:35:c3:46:1f:74:27:de:89:37:00:2d:42:48:70:5e:9a:
        5c:37:f1:cb:19:3c:2e:ec:12:dd:74:21:d9:22:71:61:cc:3e:
        70:35:39:2e:09:8f:f0:4b:06:56:42:06:8a:28:04:a7:74:5c:
        ab:a9:37:1f:d6:6a:5d:dd:e7:fd:0b:4a:1b:1c:15:02:1c:0e:
        0d:d5:5e:03:9b:d6:36:a9:eb:a0:7d:e7:e2:99:f6:70:ef:d1:
        16:0a:c7:15:e3:de:2c:ae:98:9b:c8:3e:2a:0a:55:a4:ad:38:
        05:0a:3c:5b:40:a4:84:81:94:49:34:cb:b0:a3:c5:f8:c9:af:
        99:a1:1a:78:db:89:73:be:e9:1a:57:00:bf:99:4a:cd:2e:11:
        56:1c:eb:2b:01:9a:77:8e:46:41:67:b5:00:30:7e:2d:63:97:
        01:cb:10:b9:fe:8d:d4:6c:b9:65:fd:48:48:21:5d:3f:94:d9:
        91:a5:bc:38
-----BEGIN CERTIFICATE-----
MIID1zCCAr+gAwIBAgIJAJ9uYH5lfMw3MA0GCSqGSIb3DQEBBQUAMIGBMQswCQYD
VQQGEwJpbDEOMAwGA1UECAwFTmVnZXYxEjAQBgNVBAoMCU5lZ2V2IEx0ZDETMBEG
A1UECwwKQWNjb3VudGluZzEYMBYGA1UEAwwPd3d3Lm5lZ2V2Lm5vcnRoMR8wHQYJ
KoZIhvcNAQkBFhBpbmZvQG5lZ2V2Lm5vcnRoMB4XDTExMDgxMzA1NTM1MloXDTE0
MDgxMjA1NTM1MlowgYExCzAJBgNVBAYTAmlsMQ4wDAYDVQQIDAVOZWdldjESMBAG
A1UECgwJTmVnZXYgTHRkMRMwEQYDVQQLDApBY2NvdW50aW5nMRgwFgYDVQQDDA93
d3cubmVnZXYubm9ydGgxHzAdBgkqhkiG9w0BCQEWEGluZm9AbmVnZXYubm9ydGgw
ggEiMA0GCSqGSIb3DQEBAQUAA4IBDwAwggEKAoIBAQDAbOy24LVHfoevUHZnlQA+
y+sN7BU8y5b1ell8dND/fS+s2HxCX28OHV/HxL5bve7dThcT6Y9FnnbciXmdPfw9
v9htiPjYE0o3DAC1ef+gYIa+CO4N+kK7ZHPi0LsoJdBBYNIt1SA9MAFTab72gO5d
3XRnuXEjXkuDsvNBUr91B75C8IkuD7KX6MwTrjtNIvh6iRMQkVCda6wwFlpjIVRf
Br3T3Qd2fwmCbfqaiTrSbeWdTZ3fiFNUpDzjbGSlJ1EQ/bsn0cmdT3u657pXx2h7
6cq1J3W1y+6j6xYmdvuSCro0lG/5VF/SLcjHmA9Cc3OPvnXof5srm9MhiezQhzVf
AgMBAAGjUDBOMB0GA1UdDgQWBBSeKHonkwHBnhEdXsz+9xxVf8k/EzAfBgNVHSME
GDAWgBSeKHonkwHBnhEdXsz+9xxVf8k/EzAMBgNVHRMEBTADAQH/MA0GCSqGSIb3
DQEBBQUAA4IBAQCHqqpAQdOhV4CalstI1SDTYQboZque8oPErNvt2ga9ue+QB6mv
7VK/VT+45m16PVopADoofIfIPMV9TeUmsCO7rz7bsCWho//+CzXDRh90J96JNwAt
QkhwXppcN/HLGTwu7BLddCHZInFhzD5wNTkuCY/wSwZWQgaKKASndFyrqTcf1mpd
3ef9C0obHBUCHA4N1V4Dm9Y2qeugfefimfZw79EWCscV494srpibyD4qClWkrTgF
CjxbQKSEgZRJNMuwo8X4ya+ZoRp424lzvukaVwC/mUrNLhFWHOsrAZp3jkZBZ7UA
MH4tY5cByxC5/o3UbLll/UhIIV0/lNmRpbw4
-----END CERTIFICATE-----
